target datalayout = "e-m:e-p270:32:32-p271:32:32-p272:64:64-i64:64-i128:128-f80:128-n8:16:32:64-S128"
target triple = "x86_64-pc-linux-gnu"

%"class.icu_77::FormattedStringBuilder" = type { i8, %"union.icu_77::FormattedStringBuilder::ValueOrHeapArray", %"union.icu_77::FormattedStringBuilder::ValueOrHeapArray.0", i32, i32 }
%"union.icu_77::FormattedStringBuilder::ValueOrHeapArray" = type { %struct.anon, [64 x i8] }
%struct.anon = type { ptr, i32 }
%"union.icu_77::FormattedStringBuilder::ValueOrHeapArray.0" = type { %struct.anon.1, [24 x i8] }
%struct.anon.1 = type { ptr, i32 }

; Function Attrs: inlinehint mustprogress nounwind uwtable
define linkonce_odr noundef ptr @_ZNK6icu_7722FormattedStringBuilder10getCharPtrEv(ptr noundef nonnull align 8 dereferenceable(136) %0) #5 comdat align 2 {
  %2 = alloca ptr, align 8
  store ptr %0, ptr %2, align 8, !tbaa !3
  %3 = load ptr, ptr %2, align 8
  %4 = getelementptr inbounds nuw %"class.icu_77::FormattedStringBuilder", ptr %3, i32 0, i32 0
  %5 = load i8, ptr %4, align 8, !tbaa !8, !range !14, !noundef !15
  %6 = trunc i8 %5 to i1
  br i1 %6, label %7, label %11

7:                                                ; preds = %1
  %8 = getelementptr inbounds nuw %"class.icu_77::FormattedStringBuilder", ptr %3, i32 0, i32 1
  %9 = getelementptr inbounds nuw %struct.anon, ptr %8, i32 0, i32 0
  %10 = load ptr, ptr %9, align 8, !tbaa !16
  br label %14

11:                                               ; preds = %1
  %12 = getelementptr inbounds nuw %"class.icu_77::FormattedStringBuilder", ptr %3, i32 0, i32 1
  %13 = getelementptr inbounds [40 x i16], ptr %12, i64 0, i64 0
  br label %14

14:                                               ; preds = %11, %7
  %15 = phi ptr [ %10, %7 ], [ %13, %11 ]
  ret ptr %15
}

; Function Attrs: mustprogress uwtable
define noundef i32 @_ZNK6icu_7722FormattedStringBuilder11codePointAtEi(ptr noundef nonnull align 8 dereferenceable(136) %0, i32 noundef %1) #3 align 2 {
  %3 = alloca ptr, align 8
  %4 = alloca i32, align 4
  %5 = alloca i32, align 4
  %6 = alloca i16, align 2
  store ptr %0, ptr %3, align 8, !tbaa !3
  store i32 %1, ptr %4, align 4, !tbaa !17
  %7 = load ptr, ptr %3, align 8
  call void @llvm.lifetime.start.p0(i64 4, ptr %5) #11
  br label %8

8:                                                ; preds = %2
  %9 = call noundef ptr @_ZNK6icu_7722FormattedStringBuilder10getCharPtrEv(ptr noundef nonnull align 8 dereferenceable(136) %7)
  %10 = getelementptr inbounds nuw %"class.icu_77::FormattedStringBuilder", ptr %7, i32 0, i32 3
  %11 = load i32, ptr %10, align 8, !tbaa !12
  %12 = sext i32 %11 to i64
  %13 = getelementptr inbounds i16, ptr %9, i64 %12
  %14 = load i32, ptr %4, align 4, !tbaa !17
  %15 = sext i32 %14 to i64
  %16 = getelementptr inbounds i16, ptr %13, i64 %15
  %17 = load i16, ptr %16, align 2, !tbaa !25
  %18 = zext i16 %17 to i32
  store i32 %18, ptr %5, align 4, !tbaa !17
  %19 = load i32, ptr %5, align 4, !tbaa !17
  %20 = and i32 %19, -2048
  %21 = icmp eq i32 %20, 55296
  br i1 %21, label %22, label %80

22:                                               ; preds = %8
  call void @llvm.lifetime.start.p0(i64 2, ptr %6) #11
  %23 = load i32, ptr %5, align 4, !tbaa !17
  %24 = and i32 %23, 1024
  %25 = icmp eq i32 %24, 0
  br i1 %25, label %26, label %54

26:                                               ; preds = %22
  %27 = load i32, ptr %4, align 4, !tbaa !17
  %28 = add nsw i32 %27, 1
  %29 = getelementptr inbounds nuw %"class.icu_77::FormattedStringBuilder", ptr %7, i32 0, i32 4
  %30 = load i32, ptr %29, align 4, !tbaa !13
  %31 = icmp ne i32 %28, %30
  br i1 %31, label %32, label %53

32:                                               ; preds = %26
  %33 = call noundef ptr @_ZNK6icu_7722FormattedStringBuilder10getCharPtrEv(ptr noundef nonnull align 8 dereferenceable(136) %7)
  %34 = getelementptr inbounds nuw %"class.icu_77::FormattedStringBuilder", ptr %7, i32 0, i32 3
  %35 = load i32, ptr %34, align 8, !tbaa !12
  %36 = sext i32 %35 to i64
  %37 = getelementptr inbounds i16, ptr %33, i64 %36
  %38 = load i32, ptr %4, align 4, !tbaa !17
  %39 = add nsw i32 %38, 1
  %40 = sext i32 %39 to i64
  %41 = getelementptr inbounds i16, ptr %37, i64 %40
  %42 = load i16, ptr %41, align 2, !tbaa !25
  store i16 %42, ptr %6, align 2, !tbaa !27
  %43 = zext i16 %42 to i32
  %44 = and i32 %43, -1024
  %45 = icmp eq i32 %44, 56320
  br i1 %45, label %46, label %53

46:                                               ; preds = %32
  %47 = load i32, ptr %5, align 4, !tbaa !17
  %48 = shl i32 %47, 10
  %49 = load i16, ptr %6, align 2, !tbaa !27
  %50 = zext i16 %49 to i32
  %51 = add nsw i32 %48, %50
  %52 = sub nsw i32 %51, 56613888
  store i32 %52, ptr %5, align 4, !tbaa !17
  br label %53

53:                                               ; preds = %46, %32, %26
  br label %79

54:                                               ; preds = %22
  %55 = load i32, ptr %4, align 4, !tbaa !17
  %56 = icmp sgt i32 %55, 0
  br i1 %56, label %57, label %78

57:                                               ; preds = %54
  %58 = call noundef ptr @_ZNK6icu_7722FormattedStringBuilder10getCharPtrEv(ptr noundef nonnull align 8 dereferenceable(136) %7)
  %59 = getelementptr inbounds nuw %"class.icu_77::FormattedStringBuilder", ptr %7, i32 0, i32 3
  %60 = load i32, ptr %59, align 8, !tbaa !12
  %61 = sext i32 %60 to i64
  %62 = getelementptr inbounds i16, ptr %58, i64 %61
  %63 = load i32, ptr %4, align 4, !tbaa !17
  %64 = sub nsw i32 %63, 1
  %65 = sext i32 %64 to i64
  %66 = getelementptr inbounds i16, ptr %62, i64 %65
  %67 = load i16, ptr %66, align 2, !tbaa !25
  store i16 %67, ptr %6, align 2, !tbaa !27
  %68 = zext i16 %67 to i32
  %69 = and i32 %68, -1024
  %70 = icmp eq i32 %69, 55296
  br i1 %70, label %71, label %78

71:                                               ; preds = %57
  %72 = load i16, ptr %6, align 2, !tbaa !27
  %73 = zext i16 %72 to i32
  %74 = shl i32 %73, 10
  %75 = load i32, ptr %5, align 4, !tbaa !17
  %76 = add nsw i32 %74, %75
  %77 = sub nsw i32 %76, 56613888
  store i32 %77, ptr %5, align 4, !tbaa !17
  br label %78

78:                                               ; preds = %71, %57, %54
  br label %79

79:                                               ; preds = %78, %53
  call void @llvm.lifetime.end.p0(i64 2, ptr %6) #11
  br label %80

80:                                               ; preds = %79, %8
  br label %81

81:                                               ; preds = %80
  br label %82

82:                                               ; preds = %81
  %83 = load i32, ptr %5, align 4, !tbaa !17
  call void @llvm.lifetime.end.p0(i64 4, ptr %5) #11
  ret i32 %83
}