; Function Attrs: mustprogress nofree norecurse nosync nounwind willreturn memory(read, inaccessiblemem: none) uwtable
define noundef range(i32 0, 10559488) i32 @_ZNK6icu_7722FormattedStringBuilder11codePointAtEi(ptr noundef nonnull readonly align 8 captures(none) dereferenceable(136) %0, i32 noundef %1) local_unnamed_addr #9 align 2 {
  %3 = load i8, ptr %0, align 8, !tbaa !3, !range !11, !noundef !12
  %4 = trunc nuw i8 %3 to i1
  %5 = getelementptr inbounds nuw i8, ptr %0, i64 8
  %6 = load ptr, ptr %5, align 8
  %7 = select i1 %4, ptr %6, ptr %5
  %8 = getelementptr inbounds nuw i8, ptr %0, i64 128
  %9 = load i32, ptr %8, align 8, !tbaa !9
  %10 = sext i32 %9 to i64
  %11 = getelementptr inbounds i16, ptr %7, i64 %10
  %12 = sext i32 %1 to i64
  %13 = getelementptr inbounds i16, ptr %11, i64 %12
  %14 = load i16, ptr %13, align 2, !tbaa !14
  %15 = zext i16 %14 to i32
  %16 = and i32 %15, 63488
  %17 = icmp eq i32 %16, 55296
  br i1 %17, label %18, label %50

18:                                               ; preds = %2
  %19 = and i32 %15, 1024
  %20 = icmp eq i32 %19, 0
  br i1 %20, label %21, label %36

21:                                               ; preds = %18
  %22 = add nsw i32 %1, 1
  %23 = getelementptr inbounds nuw i8, ptr %0, i64 132
  %24 = load i32, ptr %23, align 4, !tbaa !10
  %.not = icmp eq i32 %22, %24
  br i1 %.not, label %50, label %25

25:                                               ; preds = %21
  %26 = sext i32 %22 to i64
  %27 = getelementptr inbounds i16, ptr %11, i64 %26
  %28 = load i16, ptr %27, align 2, !tbaa !14
  %29 = zext i16 %28 to i32
  %30 = and i32 %29, 64512
  %31 = icmp eq i32 %30, 56320
  br i1 %31, label %32, label %50

32:                                               ; preds = %25
  %33 = shl nuw nsw i32 %15, 10
  %34 = add nsw i32 %33, -56613888
  %35 = add nuw nsw i32 %34, %29
  br label %50

36:                                               ; preds = %18
  %37 = icmp sgt i32 %1, 0
  br i1 %37, label %38, label %50

38:                                               ; preds = %36
  %39 = zext nneg i32 %1 to i64
  %40 = getelementptr i16, ptr %11, i64 %39
  %41 = getelementptr i8, ptr %40, i64 -2
  %42 = load i16, ptr %41, align 2, !tbaa !14
  %43 = zext i16 %42 to i32
  %44 = and i32 %43, 64512
  %45 = icmp eq i32 %44, 55296
  br i1 %45, label %46, label %50

46:                                               ; preds = %38
  %47 = shl nuw nsw i32 %43, 10
  %48 = add nuw nsw i32 %15, -56613888
  %49 = add nsw i32 %48, %47
  br label %50

50:                                               ; preds = %32, %25, %21, %46, %38, %36, %2
  %.1 = phi i32 [ %15, %2 ], [ %35, %32 ], [ %15, %25 ], [ %15, %21 ], [ %49, %46 ], [ %15, %38 ], [ %15, %36 ]
  ret i32 %.1
}